; Function Attrs: mustprogress uwtable
define dso_local void @_ZN3net22QuicCryptoServerStream16ValidateCallback3RunESt10unique_ptrINS_33ValidateClientHelloResultCallback6ResultESt14default_deleteIS4_EES2_INS_11ProofSource7DetailsES5_IS9_EE(ptr nocapture noundef nonnull readonly align 8 dereferenceable(16) %this, ptr nocapture noundef readonly %result, ptr nocapture noundef %details) unnamed_addr #0 align 2 personality ptr @__gxx_personality_v0 {
entry:
  %agg.tmp = alloca %"class.std::unique_ptr.275", align 8
  %parent_ = getelementptr inbounds i8, ptr %this, i64 8
  %0 = load ptr, ptr %parent_, align 8
  %cmp.not = icmp eq ptr %0, null
  br i1 %cmp.not, label %if.end, label %if.then

if.then:                                          ; preds = %entry
  %1 = load ptr, ptr %result, align 8
  %2 = load i64, ptr %details, align 8
  store i64 %2, ptr %agg.tmp, align 8
  store ptr null, ptr %details, align 8
  invoke void @_ZN3net22QuicCryptoServerStream32FinishProcessingHandshakeMessageERKNS_33ValidateClientHelloResultCallback6ResultESt10unique_ptrINS_11ProofSource7DetailsESt14default_deleteIS7_EE(ptr noundef nonnull align 8 dereferenceable(1328) %0, ptr noundef nonnull align 8 dereferenceable(368) %1, ptr noundef nonnull %agg.tmp)
          to label %invoke.cont unwind label %lpad

invoke.cont:                                      ; preds = %if.then
  %3 = load ptr, ptr %agg.tmp, align 8
  %cmp.not.i = icmp eq ptr %3, null
  br i1 %cmp.not.i, label %if.end, label %_ZNKSt14default_deleteIN3net11ProofSource7DetailsEEclEPS2_.exit.i

_ZNKSt14default_deleteIN3net11ProofSource7DetailsEEclEPS2_.exit.i: ; preds = %invoke.cont
  %vtable.i.i = load ptr, ptr %3, align 8
  %vfn.i.i = getelementptr inbounds i8, ptr %vtable.i.i, i64 8
  %4 = load ptr, ptr %vfn.i.i, align 8
  tail call void %4(ptr noundef nonnull align 8 dereferenceable(8) %3) #15
  br label %if.end

lpad:                                             ; preds = %if.then
  %5 = landingpad { ptr, i32 }
          cleanup
  %6 = load ptr, ptr %agg.tmp, align 8
  %cmp.not.i1 = icmp eq ptr %6, null
  br i1 %cmp.not.i1, label %_ZNSt10unique_ptrIN3net11ProofSource7DetailsESt14default_deleteIS2_EED2Ev.exit5, label %_ZNKSt14default_deleteIN3net11ProofSource7DetailsEEclEPS2_.exit.i2

_ZNKSt14default_deleteIN3net11ProofSource7DetailsEEclEPS2_.exit.i2: ; preds = %lpad
  %vtable.i.i3 = load ptr, ptr %6, align 8
  %vfn.i.i4 = getelementptr inbounds i8, ptr %vtable.i.i3, i64 8
  %7 = load ptr, ptr %vfn.i.i4, align 8
  tail call void %7(ptr noundef nonnull align 8 dereferenceable(8) %6) #15
  br label %_ZNSt10unique_ptrIN3net11ProofSource7DetailsESt14default_deleteIS2_EED2Ev.exit5

_ZNSt10unique_ptrIN3net11ProofSource7DetailsESt14default_deleteIS2_EED2Ev.exit5: ; preds = %lpad, %_ZNKSt14default_deleteIN3net11ProofSource7DetailsEEclEPS2_.exit.i2
  resume { ptr, i32 } %5

if.end:                                           ; preds = %_ZNKSt14default_deleteIN3net11ProofSource7DetailsEEclEPS2_.exit.i, %invoke.cont, %entry
  ret void
}